target datalayout = "e-m:e-p270:32:32-p271:32:32-p272:64:64-i64:64-i128:128-f80:128-n8:16:32:64-S128"
target triple = "x86_64-pc-linux-gnu"

%struct.expert_field = type { i32, i32 }
%struct._asn1_ctx_t = type { i32, i32, i8, ptr, ptr, ptr, ptr, ptr, %struct.anon, %struct.anon.2, %struct.anon.3, ptr }
%struct.anon = type { i32, i8, i8, i8, ptr, ptr, i32, i32, ptr, ptr, ptr, %union.anon }
%union.anon = type { %struct.anon.0 }
%struct.anon.0 = type { ptr }
%struct.anon.2 = type { ptr, ptr, ptr }
%struct.anon.3 = type { i32, i8, ptr, i32, i32, ptr, ptr, ptr, %union.anon.4 }
%union.anon.4 = type { %struct.anon.5 }
%struct.anon.5 = type { ptr }
%struct._packet_info = type { ptr, ptr, i32, i32, %struct.nstime_t, %struct.nstime_t, %struct.nstime_t, i32, ptr, ptr, ptr, ptr, %struct._address, %struct._address, %struct._address, %struct._address, %struct._address, %struct._address, i32, ptr, i32, %struct.anon.7, i32, i32, i32, i32, ptr, i32, ptr, ptr, i16, i16, i32, i32, i16, i32, i32, ptr, ptr, ptr, i8, i8, i16, i16, i16, i32, i16, i16, ptr, ptr, ptr, ptr, ptr, i32 }
%struct.nstime_t = type { i64, i32 }
%struct._address = type { i32, i32, ptr, ptr }
%struct.anon.7 = type { i8, [3 x i8] }

@.str = private unnamed_addr constant [35 x i8] c"constrained_integer to large value\00", align 1
@ei_oer_undecoded = internal global %struct.expert_field zeroinitializer, align 4
@.str.41 = private unnamed_addr constant [28 x i8] c"something unknown here [%s]\00", align 1
@.str.42 = private unnamed_addr constant [18 x i8] c"[UNKNOWN OER: %s]\00", align 1

; Function Attrs: nounwind uwtable
define internal void @dissect_oer_not_decoded_yet(ptr noundef %0, ptr noundef %1, ptr noundef %2, ptr noundef %3) #0 {
  %5 = alloca ptr, align 8
  %6 = alloca ptr, align 8
  %7 = alloca ptr, align 8
  %8 = alloca ptr, align 8
  store ptr %0, ptr %5, align 8
  store ptr %1, ptr %6, align 8
  store ptr %2, ptr %7, align 8
  store ptr %3, ptr %8, align 8
  %9 = load ptr, ptr %5, align 8
  %10 = load ptr, ptr %6, align 8
  %11 = load ptr, ptr %7, align 8
  %12 = load ptr, ptr %8, align 8
  %13 = call ptr (ptr, ptr, ptr, ptr, i32, i32, ptr, ...) @proto_tree_add_expert_format(ptr noundef %9, ptr noundef %10, ptr noundef @ei_oer_undecoded, ptr noundef %11, i32 noundef 0, i32 noundef 0, ptr noundef @.str.41, ptr noundef %12)
  %14 = load ptr, ptr %6, align 8
  %15 = getelementptr inbounds %struct._packet_info, ptr %14, i32 0, i32 1
  %16 = load ptr, ptr %15, align 8
  %17 = load ptr, ptr %8, align 8
  call void (ptr, i32, ptr, ...) @col_append_fstr(ptr noundef %16, i32 noundef 25, ptr noundef @.str.42, ptr noundef %17)
  call void @except_throw(i64 noundef 1, i64 noundef 3, ptr noundef null) #4
  unreachable
}

; Function Attrs: nounwind uwtable
define i32 @dissect_oer_constrained_integer(ptr noundef %0, i32 noundef %1, ptr noundef %2, ptr noundef %3, i32 noundef %4, i64 noundef %5, i64 noundef %6, ptr noundef %7, i32 noundef %8) #0 {
  %10 = alloca ptr, align 8
  %11 = alloca i32, align 4
  %12 = alloca ptr, align 8
  %13 = alloca ptr, align 8
  %14 = alloca i32, align 4
  %15 = alloca i64, align 8
  %16 = alloca i64, align 8
  %17 = alloca ptr, align 8
  %18 = alloca i32, align 4
  %19 = alloca i32, align 4
  store ptr %0, ptr %10, align 8
  store i32 %1, ptr %11, align 4
  store ptr %2, ptr %12, align 8
  store ptr %3, ptr %13, align 8
  store i32 %4, ptr %14, align 4
  store i64 %5, ptr %15, align 8
  store i64 %6, ptr %16, align 8
  store ptr %7, ptr %17, align 8
  store i32 %8, ptr %18, align 4
  store i32 0, ptr %19, align 4
  %20 = load i64, ptr %15, align 8
  %21 = icmp sge i64 %20, 0
  br i1 %21, label %22, label %64

22:                                               ; preds = %9
  %23 = load i64, ptr %16, align 8
  %24 = icmp slt i64 %23, 256
  br i1 %24, label %25, label %33

25:                                               ; preds = %22
  %26 = load ptr, ptr %13, align 8
  %27 = load i32, ptr %14, align 4
  %28 = load ptr, ptr %10, align 8
  %29 = load i32, ptr %11, align 4
  %30 = call ptr @proto_tree_add_item_ret_uint(ptr noundef %26, i32 noundef %27, ptr noundef %28, i32 noundef %29, i32 noundef 1, i32 noundef 0, ptr noundef %19)
  %31 = load i32, ptr %11, align 4
  %32 = add i32 %31, 1
  store i32 %32, ptr %11, align 4
  br label %63

33:                                               ; preds = %22
  %34 = load i64, ptr %16, align 8
  %35 = icmp slt i64 %34, 65536
  br i1 %35, label %36, label %44

36:                                               ; preds = %33
  %37 = load ptr, ptr %13, align 8
  %38 = load i32, ptr %14, align 4
  %39 = load ptr, ptr %10, align 8
  %40 = load i32, ptr %11, align 4
  %41 = call ptr @proto_tree_add_item_ret_uint(ptr noundef %37, i32 noundef %38, ptr noundef %39, i32 noundef %40, i32 noundef 2, i32 noundef 0, ptr noundef %19)
  %42 = load i32, ptr %11, align 4
  %43 = add i32 %42, 2
  store i32 %43, ptr %11, align 4
  br label %62

44:                                               ; preds = %33
  %45 = load i64, ptr %16, align 8
  %46 = icmp eq i64 %45, 4294967295
  br i1 %46, label %47, label %55

47:                                               ; preds = %44
  %48 = load ptr, ptr %13, align 8
  %49 = load i32, ptr %14, align 4
  %50 = load ptr, ptr %10, align 8
  %51 = load i32, ptr %11, align 4
  %52 = call ptr @proto_tree_add_item_ret_uint(ptr noundef %48, i32 noundef %49, ptr noundef %50, i32 noundef %51, i32 noundef 4, i32 noundef 0, ptr noundef %19)
  %53 = load i32, ptr %11, align 4
  %54 = add i32 %53, 4
  store i32 %54, ptr %11, align 4
  br label %61

55:                                               ; preds = %44
  %56 = load ptr, ptr %13, align 8
  %57 = load ptr, ptr %12, align 8
  %58 = getelementptr inbounds %struct._asn1_ctx_t, ptr %57, i32 0, i32 3
  %59 = load ptr, ptr %58, align 8
  %60 = load ptr, ptr %10, align 8
  call void @dissect_oer_not_decoded_yet(ptr noundef %56, ptr noundef %59, ptr noundef %60, ptr noundef @.str)
  br label %61

61:                                               ; preds = %55, %47
  br label %62

62:                                               ; preds = %61, %36
  br label %63

63:                                               ; preds = %62, %25
  br label %115

64:                                               ; preds = %9
  %65 = load i64, ptr %15, align 8
  %66 = icmp sge i64 %65, -128
  br i1 %66, label %67, label %78

67:                                               ; preds = %64
  %68 = load i64, ptr %16, align 8
  %69 = icmp sle i64 %68, 127
  br i1 %69, label %70, label %78

70:                                               ; preds = %67
  %71 = load ptr, ptr %13, align 8
  %72 = load i32, ptr %14, align 4
  %73 = load ptr, ptr %10, align 8
  %74 = load i32, ptr %11, align 4
  %75 = call ptr @proto_tree_add_item_ret_int(ptr noundef %71, i32 noundef %72, ptr noundef %73, i32 noundef %74, i32 noundef 1, i32 noundef 0, ptr noundef %19)
  %76 = load i32, ptr %11, align 4
  %77 = add i32 %76, 1
  store i32 %77, ptr %11, align 4
  br label %114

78:                                               ; preds = %67, %64
  %79 = load i64, ptr %15, align 8
  %80 = icmp sge i64 %79, -32768
  br i1 %80, label %81, label %92

81:                                               ; preds = %78
  %82 = load i64, ptr %16, align 8
  %83 = icmp sle i64 %82, 32767
  br i1 %83, label %84, label %92

84:                                               ; preds = %81
  %85 = load ptr, ptr %13, align 8
  %86 = load i32, ptr %14, align 4
  %87 = load ptr, ptr %10, align 8
  %88 = load i32, ptr %11, align 4
  %89 = call ptr @proto_tree_add_item_ret_int(ptr noundef %85, i32 noundef %86, ptr noundef %87, i32 noundef %88, i32 noundef 2, i32 noundef 0, ptr noundef %19)
  %90 = load i32, ptr %11, align 4
  %91 = add i32 %90, 2
  store i32 %91, ptr %11, align 4
  br label %113

92:                                               ; preds = %81, %78
  %93 = load i64, ptr %15, align 8
  %94 = icmp sge i64 %93, -2147483648
  br i1 %94, label %95, label %106

95:                                               ; preds = %92
  %96 = load i64, ptr %16, align 8
  %97 = icmp sle i64 %96, 2147483647
  br i1 %97, label %98, label %106

98:                                               ; preds = %95
  %99 = load ptr, ptr %13, align 8
  %100 = load i32, ptr %14, align 4
  %101 = load ptr, ptr %10, align 8
  %102 = load i32, ptr %11, align 4
  %103 = call ptr @proto_tree_add_item_ret_int(ptr noundef %99, i32 noundef %100, ptr noundef %101, i32 noundef %102, i32 noundef 4, i32 noundef 0, ptr noundef %19)
  %104 = load i32, ptr %11, align 4
  %105 = add i32 %104, 4
  store i32 %105, ptr %11, align 4
  br label %112

106:                                              ; preds = %95, %92
  %107 = load ptr, ptr %13, align 8
  %108 = load ptr, ptr %12, align 8
  %109 = getelementptr inbounds %struct._asn1_ctx_t, ptr %108, i32 0, i32 3
  %110 = load ptr, ptr %109, align 8
  %111 = load ptr, ptr %10, align 8
  call void @dissect_oer_not_decoded_yet(ptr noundef %107, ptr noundef %110, ptr noundef %111, ptr noundef @.str)
  br label %112

112:                                              ; preds = %106, %98
  br label %113

113:                                              ; preds = %112, %84
  br label %114

114:                                              ; preds = %113, %70
  br label %115

115:                                              ; preds = %114, %63
  %116 = load ptr, ptr %17, align 8
  %117 = icmp ne ptr %116, null
  br i1 %117, label %118, label %121

118:                                              ; preds = %115
  %119 = load i32, ptr %19, align 4
  %120 = load ptr, ptr %17, align 8
  store i32 %119, ptr %120, align 4
  br label %121

121:                                              ; preds = %118, %115
  %122 = load i32, ptr %11, align 4
  ret i32 %122
}