; Function Attrs: nounwind uwtable
define noundef i32 @dissect_oer_constrained_integer(ptr noundef %0, i32 noundef %1, ptr noundef readonly captures(none) %2, ptr noundef %3, i32 noundef %4, i64 noundef %5, i64 noundef %6, ptr noundef writeonly %7, i32 noundef %8) local_unnamed_addr #0 {
  %10 = alloca i32, align 4
  store i32 0, ptr %10, align 4
  %11 = icmp sgt i64 %5, -1
  br i1 %11, label %12, label %30

12:                                               ; preds = %9
  %13 = icmp slt i64 %6, 256
  br i1 %13, label %14, label %16

14:                                               ; preds = %12
  %15 = call ptr @proto_tree_add_item_ret_uint(ptr noundef %3, i32 noundef %4, ptr noundef %0, i32 noundef %1, i32 noundef 1, i32 noundef 0, ptr noundef nonnull %10) #8
  br label %51

16:                                               ; preds = %12
  %17 = icmp samesign ult i64 %6, 65536
  br i1 %17, label %18, label %20

18:                                               ; preds = %16
  %19 = call ptr @proto_tree_add_item_ret_uint(ptr noundef %3, i32 noundef %4, ptr noundef %0, i32 noundef %1, i32 noundef 2, i32 noundef 0, ptr noundef nonnull %10) #8
  br label %51

20:                                               ; preds = %16
  %21 = icmp eq i64 %6, 4294967295
  br i1 %21, label %22, label %24

22:                                               ; preds = %20
  %23 = call ptr @proto_tree_add_item_ret_uint(ptr noundef %3, i32 noundef %4, ptr noundef %0, i32 noundef %1, i32 noundef 4, i32 noundef 0, ptr noundef nonnull %10) #8
  br label %51

24:                                               ; preds = %20
  %25 = getelementptr inbounds nuw i8, ptr %2, i64 16
  %26 = load ptr, ptr %25, align 8
  %27 = tail call ptr (ptr, ptr, ptr, ptr, i32, i32, ptr, ...) @proto_tree_add_expert_format(ptr noundef %3, ptr noundef %26, ptr noundef nonnull @ei_oer_undecoded, ptr noundef %0, i32 noundef 0, i32 noundef 0, ptr noundef nonnull @.str.41, ptr noundef nonnull @.str) #8
  %28 = getelementptr inbounds nuw i8, ptr %26, i64 8
  %29 = load ptr, ptr %28, align 8
  tail call void (ptr, i32, ptr, ...) @col_append_fstr(ptr noundef %29, i32 noundef 25, ptr noundef nonnull @.str.42, ptr noundef nonnull @.str) #8
  tail call void @except_throw(i64 noundef 1, i64 noundef 3, ptr noundef null) #9
  unreachable

30:                                               ; preds = %9
  %31 = icmp samesign ugt i64 %5, -129
  %32 = icmp slt i64 %6, 128
  %or.cond = and i1 %31, %32
  br i1 %or.cond, label %33, label %35

33:                                               ; preds = %30
  %34 = call ptr @proto_tree_add_item_ret_int(ptr noundef %3, i32 noundef %4, ptr noundef %0, i32 noundef %1, i32 noundef 1, i32 noundef 0, ptr noundef nonnull %10) #8
  br label %51

35:                                               ; preds = %30
  %36 = icmp samesign ugt i64 %5, -32769
  %37 = icmp slt i64 %6, 32768
  %or.cond3 = and i1 %36, %37
  br i1 %or.cond3, label %38, label %40

38:                                               ; preds = %35
  %39 = call ptr @proto_tree_add_item_ret_int(ptr noundef %3, i32 noundef %4, ptr noundef %0, i32 noundef %1, i32 noundef 2, i32 noundef 0, ptr noundef nonnull %10) #8
  br label %51

40:                                               ; preds = %35
  %41 = icmp samesign ugt i64 %5, -2147483649
  %42 = icmp slt i64 %6, 2147483648
  %or.cond5 = and i1 %41, %42
  br i1 %or.cond5, label %43, label %45

43:                                               ; preds = %40
  %44 = call ptr @proto_tree_add_item_ret_int(ptr noundef %3, i32 noundef %4, ptr noundef %0, i32 noundef %1, i32 noundef 4, i32 noundef 0, ptr noundef nonnull %10) #8
  br label %51

45:                                               ; preds = %40
  %46 = getelementptr inbounds nuw i8, ptr %2, i64 16
  %47 = load ptr, ptr %46, align 8
  %48 = tail call ptr (ptr, ptr, ptr, ptr, i32, i32, ptr, ...) @proto_tree_add_expert_format(ptr noundef %3, ptr noundef %47, ptr noundef nonnull @ei_oer_undecoded, ptr noundef %0, i32 noundef 0, i32 noundef 0, ptr noundef nonnull @.str.41, ptr noundef nonnull @.str) #8
  %49 = getelementptr inbounds nuw i8, ptr %47, i64 8
  %50 = load ptr, ptr %49, align 8
  tail call void (ptr, i32, ptr, ...) @col_append_fstr(ptr noundef %50, i32 noundef 25, ptr noundef nonnull @.str.42, ptr noundef nonnull @.str) #8
  tail call void @except_throw(i64 noundef 1, i64 noundef 3, ptr noundef null) #9
  unreachable

51:                                               ; preds = %33, %43, %38, %14, %22, %18
  %.sink = phi i32 [ 1, %33 ], [ 4, %43 ], [ 2, %38 ], [ 1, %14 ], [ 4, %22 ], [ 2, %18 ]
  %.not = icmp eq ptr %7, null
  br i1 %.not, label %54, label %52

52:                                               ; preds = %51
  %53 = load i32, ptr %10, align 4
  store i32 %53, ptr %7, align 4
  br label %54

54:                                               ; preds = %52, %51
  %55 = add i32 %1, %.sink
  ret i32 %55
}